target datalayout = "e-m:e-p270:32:32-p271:32:32-p272:64:64-i64:64-i128:128-f80:128-n8:16:32:64-S128"
target triple = "x86_64-pc-linux-gnu"

; Function Attrs: nounwind uwtable
define dso_local i32 @isvalidcharntorune(ptr noundef %0, i32 noundef %1, ptr noundef %2, ptr noundef %3) #0 {
  %5 = alloca ptr, align 8
  %6 = alloca i32, align 4
  %7 = alloca ptr, align 8
  %8 = alloca ptr, align 8
  store ptr %0, ptr %5, align 8, !tbaa !9
  store i32 %1, ptr %6, align 4, !tbaa !11
  store ptr %2, ptr %7, align 8, !tbaa !4
  store ptr %3, ptr %8, align 8, !tbaa !4
  %9 = load ptr, ptr %7, align 8, !tbaa !4
  %10 = load ptr, ptr %5, align 8, !tbaa !9
  %11 = load i32, ptr %6, align 4, !tbaa !11
  %12 = call i32 @charntorune(ptr noundef %9, ptr noundef %10, i32 noundef %11)
  %13 = load ptr, ptr %8, align 8, !tbaa !4
  store i32 %12, ptr %13, align 4, !tbaa !11
  %14 = load ptr, ptr %7, align 8, !tbaa !4
  %15 = load i32, ptr %14, align 4, !tbaa !11
  %16 = icmp ne i32 %15, 65533
  br i1 %16, label %21, label %17

17:                                               ; preds = %4
  %18 = load ptr, ptr %8, align 8, !tbaa !4
  %19 = load i32, ptr %18, align 4, !tbaa !11
  %20 = icmp eq i32 %19, 3
  br label %21

21:                                               ; preds = %17, %4
  %22 = phi i1 [ true, %4 ], [ %20, %17 ]
  %23 = zext i1 %22 to i32
  ret i32 %23
}