; Function Attrs: mustprogress nofree norecurse nosync nounwind willreturn memory(argmem: readwrite) uwtable
define dso_local range(i32 0, 2) i32 @isvalidcharntorune(ptr noundef readonly captures(none) %0, i32 noundef %1, ptr noundef captures(none) initializes((0, 4)) %2, ptr noundef writeonly captures(none) initializes((0, 4)) %3) local_unnamed_addr #0 {
  %5 = tail call i32 @charntorune(ptr noundef %2, ptr noundef %0, i32 noundef %1)
  store i32 %5, ptr %3, align 4, !tbaa !7
  %6 = load i32, ptr %2, align 4, !tbaa !7
  %.not = icmp ne i32 %6, 65533
  %7 = icmp eq i32 %5, 3
  %narrow = select i1 %.not, i1 true, i1 %7
  %8 = zext i1 %narrow to i32
  ret i32 %8
}